; Function Attrs: nounwind uwtable
define noalias noundef ptr @Extra_SymmPairsCompute(ptr noundef %0, ptr noundef %1) local_unnamed_addr #0 {
  %3 = tail call ptr @Cudd_Support(ptr noundef %0, ptr noundef %1) #10
  tail call void @Cudd_Ref(ptr noundef %3) #10
  %4 = getelementptr inbounds nuw i8, ptr %0, i64 448
  br label %5

5:                                                ; preds = %5, %2
  store i32 0, ptr %4, align 8, !tbaa !3
  %6 = tail call ptr @extraZddSymmPairsCompute(ptr noundef %0, ptr noundef %1, ptr noundef %3)
  %7 = load i32, ptr %4, align 8, !tbaa !3
  %8 = icmp eq i32 %7, 1
  br i1 %8, label %5, label %Extra_zddSymmPairsCompute.exit, !llvm.loop !24

Extra_zddSymmPairsCompute.exit:                   ; preds = %5
  tail call void @Cudd_Ref(ptr noundef %6) #10
  %9 = tail call ptr @Extra_SymmPairsCreateFromZdd(ptr noundef nonnull %0, ptr noundef %6, ptr noundef %3)
  tail call void @Cudd_RecursiveDeref(ptr noundef nonnull %0, ptr noundef %3) #10
  tail call void @Cudd_RecursiveDerefZdd(ptr noundef nonnull %0, ptr noundef %6) #10
  ret ptr %9
}